; Function Attrs: mustprogress uwtable
define dso_local noundef zeroext i1 @_Z11renew_factsRSt6vectorIPK4FactSaIS2_EERKS4_(ptr nocapture noundef nonnull align 8 dereferenceable(24) %0, ptr nocapture noundef nonnull readonly align 8 dereferenceable(24) %1) local_unnamed_addr #8 {
  %3 = getelementptr inbounds i8, ptr %1, i64 8
  %4 = load ptr, ptr %3, align 8
  %5 = load ptr, ptr %1, align 8
  %.not = icmp eq ptr %4, %5
  br i1 %.not, label %._crit_edge, label %.lr.ph

.lr.ph:                                           ; preds = %2, %.lr.ph
  %6 = phi ptr [ %12, %.lr.ph ], [ %5, %2 ]
  %.08 = phi i8 [ %spec.select, %.lr.ph ], [ 0, %2 ]
  %.067 = phi i64 [ %10, %.lr.ph ], [ 0, %2 ]
  %7 = getelementptr inbounds ptr, ptr %6, i64 %.067
  %8 = load ptr, ptr %7, align 8
  %9 = tail call noundef zeroext i1 @_Z10renew_factRSt6vectorIPK4FactSaIS2_EES2_(ptr noundef nonnull align 8 dereferenceable(24) %0, ptr noundef %8)
  %spec.select = select i1 %9, i8 1, i8 %.08
  %10 = add nuw i64 %.067, 1
  %11 = load ptr, ptr %3, align 8
  %12 = load ptr, ptr %1, align 8
  %13 = ptrtoint ptr %11 to i64
  %14 = ptrtoint ptr %12 to i64
  %15 = sub i64 %13, %14
  %16 = ashr exact i64 %15, 3
  %17 = icmp ult i64 %10, %16
  br i1 %17, label %.lr.ph, label %._crit_edge.loopexit, !llvm.loop !14

._crit_edge.loopexit:                             ; preds = %.lr.ph
  %18 = and i8 %spec.select, 1
  %19 = icmp ne i8 %18, 0
  br label %._crit_edge

._crit_edge:                                      ; preds = %._crit_edge.loopexit, %2
  %.0.lcssa = phi i1 [ false, %2 ], [ %19, %._crit_edge.loopexit ]
  ret i1 %.0.lcssa
}